target datalayout = "e-m:e-p270:32:32-p271:32:32-p272:64:64-i64:64-i128:128-f80:128-n8:16:32:64-S128"
target triple = "x86_64-pc-linux-gnu"

%struct._stmt = type { i32, %union.anon.11, i32, i32, i32, i32 }
%union.anon.11 = type { %struct.anon.12 }
%struct.anon.12 = type { ptr, ptr, ptr, ptr, ptr, ptr, ptr }
%struct.anon.14 = type { ptr, ptr, ptr, ptr, ptr, ptr }

@PyExc_ValueError = external global ptr, align 8
@.str.6 = private unnamed_addr constant [38 x i8] c"field 'name' is required for ClassDef\00", align 1

; Function Attrs: nounwind uwtable
define hidden ptr @_PyAST_ClassDef(ptr noundef %0, ptr noundef %1, ptr noundef %2, ptr noundef %3, ptr noundef %4, ptr noundef %5, i32 noundef %6, i32 noundef %7, i32 noundef %8, i32 noundef %9, ptr noundef %10) #0 {
  %12 = alloca ptr, align 8
  %13 = alloca ptr, align 8
  %14 = alloca ptr, align 8
  %15 = alloca ptr, align 8
  %16 = alloca ptr, align 8
  %17 = alloca ptr, align 8
  %18 = alloca ptr, align 8
  %19 = alloca i32, align 4
  %20 = alloca i32, align 4
  %21 = alloca i32, align 4
  %22 = alloca i32, align 4
  %23 = alloca ptr, align 8
  %24 = alloca ptr, align 8
  %25 = alloca i32, align 4
  store ptr %0, ptr %13, align 8, !tbaa !13
  store ptr %1, ptr %14, align 8, !tbaa !26
  store ptr %2, ptr %15, align 8, !tbaa !26
  store ptr %3, ptr %16, align 8, !tbaa !26
  store ptr %4, ptr %17, align 8, !tbaa !26
  store ptr %5, ptr %18, align 8, !tbaa !26
  store i32 %6, ptr %19, align 4, !tbaa !38
  store i32 %7, ptr %20, align 4, !tbaa !38
  store i32 %8, ptr %21, align 4, !tbaa !38
  store i32 %9, ptr %22, align 4, !tbaa !38
  store ptr %10, ptr %23, align 8, !tbaa !24
  call void @llvm.lifetime.start.p0(i64 8, ptr %24) #8
  %26 = load ptr, ptr %13, align 8, !tbaa !13
  %27 = icmp ne ptr %26, null
  br i1 %27, label %30, label %28

28:                                               ; preds = %11
  %29 = load ptr, ptr @PyExc_ValueError, align 8, !tbaa !13
  call void @PyErr_SetString(ptr noundef %29, ptr noundef @.str.6)
  store ptr null, ptr %12, align 8
  store i32 1, ptr %25, align 4
  br label %76

30:                                               ; preds = %11
  %31 = load ptr, ptr %23, align 8, !tbaa !24
  %32 = call ptr @_PyArena_Malloc(ptr noundef %31, i64 noundef 80)
  store ptr %32, ptr %24, align 8, !tbaa !39
  %33 = load ptr, ptr %24, align 8, !tbaa !39
  %34 = icmp ne ptr %33, null
  br i1 %34, label %36, label %35

35:                                               ; preds = %30
  store ptr null, ptr %12, align 8
  store i32 1, ptr %25, align 4
  br label %76

36:                                               ; preds = %30
  %37 = load ptr, ptr %24, align 8, !tbaa !39
  %38 = getelementptr inbounds nuw %struct._stmt, ptr %37, i32 0, i32 0
  store i32 3, ptr %38, align 8, !tbaa !41
  %39 = load ptr, ptr %13, align 8, !tbaa !13
  %40 = load ptr, ptr %24, align 8, !tbaa !39
  %41 = getelementptr inbounds nuw %struct._stmt, ptr %40, i32 0, i32 1
  %42 = getelementptr inbounds nuw %struct.anon.14, ptr %41, i32 0, i32 0
  store ptr %39, ptr %42, align 8, !tbaa !21
  %43 = load ptr, ptr %14, align 8, !tbaa !26
  %44 = load ptr, ptr %24, align 8, !tbaa !39
  %45 = getelementptr inbounds nuw %struct._stmt, ptr %44, i32 0, i32 1
  %46 = getelementptr inbounds nuw %struct.anon.14, ptr %45, i32 0, i32 1
  store ptr %43, ptr %46, align 8, !tbaa !21
  %47 = load ptr, ptr %15, align 8, !tbaa !26
  %48 = load ptr, ptr %24, align 8, !tbaa !39
  %49 = getelementptr inbounds nuw %struct._stmt, ptr %48, i32 0, i32 1
  %50 = getelementptr inbounds nuw %struct.anon.14, ptr %49, i32 0, i32 2
  store ptr %47, ptr %50, align 8, !tbaa !21
  %51 = load ptr, ptr %16, align 8, !tbaa !26
  %52 = load ptr, ptr %24, align 8, !tbaa !39
  %53 = getelementptr inbounds nuw %struct._stmt, ptr %52, i32 0, i32 1
  %54 = getelementptr inbounds nuw %struct.anon.14, ptr %53, i32 0, i32 3
  store ptr %51, ptr %54, align 8, !tbaa !21
  %55 = load ptr, ptr %17, align 8, !tbaa !26
  %56 = load ptr, ptr %24, align 8, !tbaa !39
  %57 = getelementptr inbounds nuw %struct._stmt, ptr %56, i32 0, i32 1
  %58 = getelementptr inbounds nuw %struct.anon.14, ptr %57, i32 0, i32 4
  store ptr %55, ptr %58, align 8, !tbaa !21
  %59 = load ptr, ptr %18, align 8, !tbaa !26
  %60 = load ptr, ptr %24, align 8, !tbaa !39
  %61 = getelementptr inbounds nuw %struct._stmt, ptr %60, i32 0, i32 1
  %62 = getelementptr inbounds nuw %struct.anon.14, ptr %61, i32 0, i32 5
  store ptr %59, ptr %62, align 8, !tbaa !21
  %63 = load i32, ptr %19, align 4, !tbaa !38
  %64 = load ptr, ptr %24, align 8, !tbaa !39
  %65 = getelementptr inbounds nuw %struct._stmt, ptr %64, i32 0, i32 2
  store i32 %63, ptr %65, align 8, !tbaa !43
  %66 = load i32, ptr %20, align 4, !tbaa !38
  %67 = load ptr, ptr %24, align 8, !tbaa !39
  %68 = getelementptr inbounds nuw %struct._stmt, ptr %67, i32 0, i32 3
  store i32 %66, ptr %68, align 4, !tbaa !44
  %69 = load i32, ptr %21, align 4, !tbaa !38
  %70 = load ptr, ptr %24, align 8, !tbaa !39
  %71 = getelementptr inbounds nuw %struct._stmt, ptr %70, i32 0, i32 4
  store i32 %69, ptr %71, align 8, !tbaa !45
  %72 = load i32, ptr %22, align 4, !tbaa !38
  %73 = load ptr, ptr %24, align 8, !tbaa !39
  %74 = getelementptr inbounds nuw %struct._stmt, ptr %73, i32 0, i32 5
  store i32 %72, ptr %74, align 4, !tbaa !46
  %75 = load ptr, ptr %24, align 8, !tbaa !39
  store ptr %75, ptr %12, align 8
  store i32 1, ptr %25, align 4
  br label %76

76:                                               ; preds = %36, %35, %28
  call void @llvm.lifetime.end.p0(i64 8, ptr %24) #8
  %77 = load ptr, ptr %12, align 8
  ret ptr %77
}