; Function Attrs: nounwind uwtable
define hidden ptr @_PyAST_ClassDef(ptr noundef %0, ptr noundef %1, ptr noundef %2, ptr noundef %3, ptr noundef %4, ptr noundef %5, i32 noundef %6, i32 noundef %7, i32 noundef %8, i32 noundef %9, ptr noundef %10) local_unnamed_addr #0 {
  %.not = icmp eq ptr %0, null
  br i1 %.not, label %12, label %14

12:                                               ; preds = %11
  %13 = load ptr, ptr @PyExc_ValueError, align 8, !tbaa !4
  tail call void @PyErr_SetString(ptr noundef %13, ptr noundef nonnull @.str.6) #8
  br label %27

14:                                               ; preds = %11
  %15 = tail call ptr @_PyArena_Malloc(ptr noundef %10, i64 noundef 80) #8
  %.not27 = icmp eq ptr %15, null
  br i1 %.not27, label %27, label %16

16:                                               ; preds = %14
  store i32 3, ptr %15, align 8, !tbaa !20
  %17 = getelementptr inbounds nuw i8, ptr %15, i64 8
  store ptr %0, ptr %17, align 8, !tbaa !9
  %18 = getelementptr inbounds nuw i8, ptr %15, i64 16
  store ptr %1, ptr %18, align 8, !tbaa !9
  %19 = getelementptr inbounds nuw i8, ptr %15, i64 24
  store ptr %2, ptr %19, align 8, !tbaa !9
  %20 = getelementptr inbounds nuw i8, ptr %15, i64 32
  store ptr %3, ptr %20, align 8, !tbaa !9
  %21 = getelementptr inbounds nuw i8, ptr %15, i64 40
  store ptr %4, ptr %21, align 8, !tbaa !9
  %22 = getelementptr inbounds nuw i8, ptr %15, i64 48
  store ptr %5, ptr %22, align 8, !tbaa !9
  %23 = getelementptr inbounds nuw i8, ptr %15, i64 64
  store i32 %6, ptr %23, align 8, !tbaa !22
  %24 = getelementptr inbounds nuw i8, ptr %15, i64 68
  store i32 %7, ptr %24, align 4, !tbaa !23
  %25 = getelementptr inbounds nuw i8, ptr %15, i64 72
  store i32 %8, ptr %25, align 8, !tbaa !24
  %26 = getelementptr inbounds nuw i8, ptr %15, i64 76
  store i32 %9, ptr %26, align 4, !tbaa !25
  br label %27

27:                                               ; preds = %14, %16, %12
  %.0 = phi ptr [ %15, %16 ], [ null, %12 ], [ null, %14 ]
  ret ptr %.0
}